target datalayout = "e-m:e-p270:32:32-p271:32:32-p272:64:64-i64:64-i128:128-f80:128-n8:16:32:64-S128"
target triple = "x86_64-unknown-linux-gnu"

%"class.icu_75::RBBIDataWrapper" = type <{ ptr, ptr, ptr, ptr, ptr, i32, [4 x i8], ptr, %"struct.std::atomic", [4 x i8], ptr, %"class.icu_75::UnicodeString", i8, [7 x i8] }>
%"struct.std::atomic" = type { %"struct.std::__atomic_base" }
%"struct.std::__atomic_base" = type { i32 }
%"class.icu_75::UnicodeString" = type { %"class.icu_75::Replaceable", %"union.icu_75::UnicodeString::StackBufferOrFields" }
%"class.icu_75::Replaceable" = type { %"class.icu_75::UObject" }
%"class.icu_75::UObject" = type { ptr }
%"union.icu_75::UnicodeString::StackBufferOrFields" = type { %struct.anon.0, [32 x i8] }
%struct.anon.0 = type { i16, i32, i32, ptr }
%struct.anon = type { i16, [27 x i16] }
%struct.UDataMemory = type { ptr, ptr, ptr, i8, ptr, ptr, i32 }
%struct.DataHeader = type { %struct.MappedData, %struct.UDataInfo }
%struct.MappedData = type { i16, i8, i8 }
%struct.UDataInfo = type { i16, i16, i8, i8, i8, i8, [4 x i8], [4 x i8], [4 x i8] }

@_ZN6icu_75L24RBBI_DATA_FORMAT_VERSIONE = internal constant [4 x i8] c"\06\00\00\00", align 1
@_ZTVN6icu_7513UnicodeStringE = external unnamed_addr constant { [13 x ptr] }, align 8
@_ZTVN6icu_7511ReplaceableE = external unnamed_addr constant { [13 x ptr] }, align 8
@_ZTVN6icu_757UObjectE = external unnamed_addr constant { [5 x ptr] }, align 8

; Function Attrs: noreturn nounwind uwtable
define linkonce_odr hidden void @__clang_call_terminate(ptr noundef %0) #4 comdat {
  %2 = call ptr @__cxa_begin_catch(ptr %0) #8
  call void @_ZSt9terminatev() #9
  unreachable
}

; Function Attrs: mustprogress nounwind uwtable
define linkonce_odr noundef i32 @_ZStanSt12memory_orderSt23__memory_order_modifier(i32 noundef %__m, i32 noundef %__mod) #1 comdat {
entry:
  %__m.addr = alloca i32, align 4
  %__mod.addr = alloca i32, align 4
  store i32 %__m, ptr %__m.addr, align 4
  store i32 %__mod, ptr %__mod.addr, align 4
  %0 = load i32, ptr %__m.addr, align 4
  %1 = load i32, ptr %__mod.addr, align 4
  %and = and i32 %0, %1
  ret i32 %and
}

; Function Attrs: mustprogress nounwind uwtable
define linkonce_odr void @_ZN6icu_757UObjectC2Ev(ptr noundef nonnull align 8 dereferenceable(8) %this) unnamed_addr #1 comdat align 2 {
entry:
  %this.addr = alloca ptr, align 8
  store ptr %this, ptr %this.addr, align 8
  %this1 = load ptr, ptr %this.addr, align 8
  store ptr getelementptr inbounds ({ [5 x ptr] }, ptr @_ZTVN6icu_757UObjectE, i32 0, i32 0, i32 2), ptr %this1, align 8
  ret void
}

; Function Attrs: mustprogress nounwind uwtable
define linkonce_odr noundef i32 @_ZNSt13__atomic_baseIiEaSEi(ptr noundef nonnull align 4 dereferenceable(4) %this, i32 noundef %__i) #1 comdat align 2 personality ptr @__gxx_personality_v0 {
entry:
  %this.addr.i = alloca ptr, align 8
  %__i.addr.i = alloca i32, align 4
  %__m.addr.i = alloca i32, align 4
  %__b.i = alloca i32, align 4
  %.atomictmp.i = alloca i32, align 4
  %this.addr = alloca ptr, align 8
  %__i.addr = alloca i32, align 4
  store ptr %this, ptr %this.addr, align 8
  store i32 %__i, ptr %__i.addr, align 4
  %this1 = load ptr, ptr %this.addr, align 8
  %0 = load i32, ptr %__i.addr, align 4
  store ptr %this1, ptr %this.addr.i, align 8
  store i32 %0, ptr %__i.addr.i, align 4
  store i32 5, ptr %__m.addr.i, align 4
  %this1.i = load ptr, ptr %this.addr.i, align 8
  %1 = load i32, ptr %__m.addr.i, align 4
  %call.i = invoke noundef i32 @_ZStanSt12memory_orderSt23__memory_order_modifier(i32 noundef %1, i32 noundef 65535)
          to label %invoke.cont.i unwind label %terminate.lpad.i

invoke.cont.i:                                    ; preds = %entry
  store i32 %call.i, ptr %__b.i, align 4
  %2 = load i32, ptr %__m.addr.i, align 4
  %3 = load i32, ptr %__i.addr.i, align 4
  store i32 %3, ptr %.atomictmp.i, align 4
  switch i32 %2, label %monotonic.i [
    i32 3, label %release.i
    i32 5, label %seqcst.i
  ]

monotonic.i:                                      ; preds = %invoke.cont.i
  %4 = load i32, ptr %.atomictmp.i, align 4
  store atomic i32 %4, ptr %this1.i monotonic, align 4
  br label %_ZNSt13__atomic_baseIiE5storeEiSt12memory_order.exit

release.i:                                        ; preds = %invoke.cont.i
  %5 = load i32, ptr %.atomictmp.i, align 4
  store atomic i32 %5, ptr %this1.i release, align 4
  br label %_ZNSt13__atomic_baseIiE5storeEiSt12memory_order.exit

seqcst.i:                                         ; preds = %invoke.cont.i
  %6 = load i32, ptr %.atomictmp.i, align 4
  store atomic i32 %6, ptr %this1.i seq_cst, align 4
  br label %_ZNSt13__atomic_baseIiE5storeEiSt12memory_order.exit

terminate.lpad.i:                                 ; preds = %entry
  %7 = landingpad { ptr, i32 }
          catch ptr null
  %8 = extractvalue { ptr, i32 } %7, 0
  call void @__clang_call_terminate(ptr %8) #9
  unreachable

_ZNSt13__atomic_baseIiE5storeEiSt12memory_order.exit: ; preds = %seqcst.i, %release.i, %monotonic.i
  %9 = load i32, ptr %__i.addr, align 4
  ret i32 %9
}

; Function Attrs: mustprogress nounwind uwtable
define linkonce_odr void @_ZN6icu_7511ReplaceableC2Ev(ptr noundef nonnull align 8 dereferenceable(8) %this) unnamed_addr #1 comdat align 2 {
entry:
  %this.addr = alloca ptr, align 8
  store ptr %this, ptr %this.addr, align 8
  %this1 = load ptr, ptr %this.addr, align 8
  call void @_ZN6icu_757UObjectC2Ev(ptr noundef nonnull align 8 dereferenceable(8) %this1) #8
  store ptr getelementptr inbounds ({ [13 x ptr] }, ptr @_ZTVN6icu_7511ReplaceableE, i32 0, i32 0, i32 2), ptr %this1, align 8
  ret void
}

; Function Attrs: mustprogress nounwind uwtable
define noundef signext i8 @_ZN6icu_7515RBBIDataWrapper23isDataVersionAcceptableEPKh(ptr noundef %version) #1 align 2 {
entry:
  %version.addr = alloca ptr, align 8
  store ptr %version, ptr %version.addr, align 8
  %0 = load i8, ptr @_ZN6icu_75L24RBBI_DATA_FORMAT_VERSIONE, align 1
  %conv = zext i8 %0 to i32
  %1 = load ptr, ptr %version.addr, align 8
  %arrayidx = getelementptr inbounds i8, ptr %1, i64 0
  %2 = load i8, ptr %arrayidx, align 1
  %conv1 = zext i8 %2 to i32
  %cmp = icmp eq i32 %conv, %conv1
  %conv2 = zext i1 %cmp to i8
  ret i8 %conv2
}

; Function Attrs: mustprogress nounwind uwtable
define internal noundef signext i8 @_ZL9U_FAILURE10UErrorCode(i32 noundef %code) #1 {
entry:
  %code.addr = alloca i32, align 4
  store i32 %code, ptr %code.addr, align 4
  %0 = load i32, ptr %code.addr, align 4
  %cmp = icmp sgt i32 %0, 0
  %conv = zext i1 %cmp to i8
  ret i8 %conv
}

; Function Attrs: mustprogress nounwind uwtable
define void @_ZN6icu_7515RBBIDataWrapper5init0Ev(ptr noundef nonnull align 8 dereferenceable(137) %this) #1 align 2 {
entry:
  %this.addr = alloca ptr, align 8
  store ptr %this, ptr %this.addr, align 8
  %this1 = load ptr, ptr %this.addr, align 8
  %fHeader = getelementptr inbounds %"class.icu_75::RBBIDataWrapper", ptr %this1, i32 0, i32 0
  store ptr null, ptr %fHeader, align 8
  %fForwardTable = getelementptr inbounds %"class.icu_75::RBBIDataWrapper", ptr %this1, i32 0, i32 1
  store ptr null, ptr %fForwardTable, align 8
  %fReverseTable = getelementptr inbounds %"class.icu_75::RBBIDataWrapper", ptr %this1, i32 0, i32 2
  store ptr null, ptr %fReverseTable, align 8
  %fRuleSource = getelementptr inbounds %"class.icu_75::RBBIDataWrapper", ptr %this1, i32 0, i32 3
  store ptr null, ptr %fRuleSource, align 8
  %fRuleStatusTable = getelementptr inbounds %"class.icu_75::RBBIDataWrapper", ptr %this1, i32 0, i32 4
  store ptr null, ptr %fRuleStatusTable, align 8
  %fTrie = getelementptr inbounds %"class.icu_75::RBBIDataWrapper", ptr %this1, i32 0, i32 7
  store ptr null, ptr %fTrie, align 8
  %fUDataMem = getelementptr inbounds %"class.icu_75::RBBIDataWrapper", ptr %this1, i32 0, i32 10
  store ptr null, ptr %fUDataMem, align 8
  %fRefCount = getelementptr inbounds %"class.icu_75::RBBIDataWrapper", ptr %this1, i32 0, i32 8
  %call = call noundef i32 @_ZNSt13__atomic_baseIiEaSEi(ptr noundef nonnull align 4 dereferenceable(4) %fRefCount, i32 noundef 0) #8
  %fDontFreeData = getelementptr inbounds %"class.icu_75::RBBIDataWrapper", ptr %this1, i32 0, i32 12
  store i8 1, ptr %fDontFreeData, align 8
  ret void
}

; Function Attrs: mustprogress uwtable
define linkonce_odr void @_ZN6icu_7513UnicodeStringC2Ev(ptr noundef nonnull align 8 dereferenceable(64) %this) unnamed_addr #0 comdat align 2 {
entry:
  %this.addr = alloca ptr, align 8
  store ptr %this, ptr %this.addr, align 8
  %this1 = load ptr, ptr %this.addr, align 8
  call void @_ZN6icu_7511ReplaceableC2Ev(ptr noundef nonnull align 8 dereferenceable(8) %this1)
  store ptr getelementptr inbounds ({ [13 x ptr] }, ptr @_ZTVN6icu_7513UnicodeStringE, i32 0, i32 0, i32 2), ptr %this1, align 8
  %fUnion2 = getelementptr inbounds %"class.icu_75::UnicodeString", ptr %this1, i32 0, i32 1
  %fLengthAndFlags = getelementptr inbounds %struct.anon, ptr %fUnion2, i32 0, i32 0
  store i16 2, ptr %fLengthAndFlags, align 8
  ret void
}

; Function Attrs: mustprogress uwtable
define void @_ZN6icu_7515RBBIDataWrapperC2EP11UDataMemoryR10UErrorCode(ptr noundef nonnull align 8 dereferenceable(137) %this, ptr noundef %udm, ptr noundef nonnull align 4 dereferenceable(4) %status) unnamed_addr #0 align 2 personality ptr @__gxx_personality_v0 {
entry:
  %this.addr = alloca ptr, align 8
  %udm.addr = alloca ptr, align 8
  %status.addr = alloca ptr, align 8
  %exn.slot = alloca ptr, align 8
  %ehselector.slot = alloca i32, align 4
  %dh = alloca ptr, align 8
  %headerSize = alloca i32, align 4
  %dataAsBytes = alloca ptr, align 8
  %rbbidh = alloca ptr, align 8
  store ptr %this, ptr %this.addr, align 8
  store ptr %udm, ptr %udm.addr, align 8
  store ptr %status, ptr %status.addr, align 8
  %this1 = load ptr, ptr %this.addr, align 8
  %fRuleString = getelementptr inbounds %"class.icu_75::RBBIDataWrapper", ptr %this1, i32 0, i32 11
  call void @_ZN6icu_7513UnicodeStringC2Ev(ptr noundef nonnull align 8 dereferenceable(64) %fRuleString)
  invoke void @_ZN6icu_7515RBBIDataWrapper5init0Ev(ptr noundef nonnull align 8 dereferenceable(137) %this1)
          to label %invoke.cont unwind label %lpad

invoke.cont:                                      ; preds = %entry
  %0 = load ptr, ptr %status.addr, align 8
  %1 = load i32, ptr %0, align 4
  %call = invoke noundef signext i8 @_ZL9U_FAILURE10UErrorCode(i32 noundef %1)
          to label %invoke.cont2 unwind label %lpad

invoke.cont2:                                     ; preds = %invoke.cont
  %tobool = icmp ne i8 %call, 0
  br i1 %tobool, label %if.then, label %if.end

if.then:                                          ; preds = %invoke.cont2
  br label %return

lpad:                                             ; preds = %if.end38, %land.lhs.true32, %invoke.cont, %entry
  %2 = landingpad { ptr, i32 }
          cleanup
  %3 = extractvalue { ptr, i32 } %2, 0
  store ptr %3, ptr %exn.slot, align 8
  %4 = extractvalue { ptr, i32 } %2, 1
  store i32 %4, ptr %ehselector.slot, align 4
  call void @_ZN6icu_7513UnicodeStringD1Ev(ptr noundef nonnull align 8 dereferenceable(64) %fRuleString) #8
  br label %eh.resume

if.end:                                           ; preds = %invoke.cont2
  %5 = load ptr, ptr %udm.addr, align 8
  %pHeader = getelementptr inbounds %struct.UDataMemory, ptr %5, i32 0, i32 1
  %6 = load ptr, ptr %pHeader, align 8
  store ptr %6, ptr %dh, align 8
  %7 = load ptr, ptr %dh, align 8
  %dataHeader = getelementptr inbounds %struct.DataHeader, ptr %7, i32 0, i32 0
  %headerSize3 = getelementptr inbounds %struct.MappedData, ptr %dataHeader, i32 0, i32 0
  %8 = load i16, ptr %headerSize3, align 2
  %conv = zext i16 %8 to i32
  store i32 %conv, ptr %headerSize, align 4
  %9 = load i32, ptr %headerSize, align 4
  %cmp = icmp sge i32 %9, 20
  br i1 %cmp, label %land.lhs.true, label %if.then37

land.lhs.true:                                    ; preds = %if.end
  %10 = load ptr, ptr %dh, align 8
  %info = getelementptr inbounds %struct.DataHeader, ptr %10, i32 0, i32 1
  %isBigEndian = getelementptr inbounds %struct.UDataInfo, ptr %info, i32 0, i32 2
  %11 = load i8, ptr %isBigEndian, align 2
  %conv4 = zext i8 %11 to i32
  %cmp5 = icmp eq i32 %conv4, 0
  br i1 %cmp5, label %land.lhs.true6, label %if.then37

land.lhs.true6:                                   ; preds = %land.lhs.true
  %12 = load ptr, ptr %dh, align 8
  %info7 = getelementptr inbounds %struct.DataHeader, ptr %12, i32 0, i32 1
  %charsetFamily = getelementptr inbounds %struct.UDataInfo, ptr %info7, i32 0, i32 3
  %13 = load i8, ptr %charsetFamily, align 1
  %conv8 = zext i8 %13 to i32
  %cmp9 = icmp eq i32 %conv8, 0
  br i1 %cmp9, label %land.lhs.true10, label %if.then37

land.lhs.true10:                                  ; preds = %land.lhs.true6
  %14 = load ptr, ptr %dh, align 8
  %info11 = getelementptr inbounds %struct.DataHeader, ptr %14, i32 0, i32 1
  %dataFormat = getelementptr inbounds %struct.UDataInfo, ptr %info11, i32 0, i32 6
  %arrayidx = getelementptr inbounds [4 x i8], ptr %dataFormat, i64 0, i64 0
  %15 = load i8, ptr %arrayidx, align 2
  %conv12 = zext i8 %15 to i32
  %cmp13 = icmp eq i32 %conv12, 66
  br i1 %cmp13, label %land.lhs.true14, label %if.then37

land.lhs.true14:                                  ; preds = %land.lhs.true10
  %16 = load ptr, ptr %dh, align 8
  %info15 = getelementptr inbounds %struct.DataHeader, ptr %16, i32 0, i32 1
  %dataFormat16 = getelementptr inbounds %struct.UDataInfo, ptr %info15, i32 0, i32 6
  %arrayidx17 = getelementptr inbounds [4 x i8], ptr %dataFormat16, i64 0, i64 1
  %17 = load i8, ptr %arrayidx17, align 1
  %conv18 = zext i8 %17 to i32
  %cmp19 = icmp eq i32 %conv18, 114
  br i1 %cmp19, label %land.lhs.true20, label %if.then37

land.lhs.true20:                                  ; preds = %land.lhs.true14
  %18 = load ptr, ptr %dh, align 8
  %info21 = getelementptr inbounds %struct.DataHeader, ptr %18, i32 0, i32 1
  %dataFormat22 = getelementptr inbounds %struct.UDataInfo, ptr %info21, i32 0, i32 6
  %arrayidx23 = getelementptr inbounds [4 x i8], ptr %dataFormat22, i64 0, i64 2
  %19 = load i8, ptr %arrayidx23, align 2
  %conv24 = zext i8 %19 to i32
  %cmp25 = icmp eq i32 %conv24, 107
  br i1 %cmp25, label %land.lhs.true26, label %if.then37

land.lhs.true26:                                  ; preds = %land.lhs.true20
  %20 = load ptr, ptr %dh, align 8
  %info27 = getelementptr inbounds %struct.DataHeader, ptr %20, i32 0, i32 1
  %dataFormat28 = getelementptr inbounds %struct.UDataInfo, ptr %info27, i32 0, i32 6
  %arrayidx29 = getelementptr inbounds [4 x i8], ptr %dataFormat28, i64 0, i64 3
  %21 = load i8, ptr %arrayidx29, align 1
  %conv30 = zext i8 %21 to i32
  %cmp31 = icmp eq i32 %conv30, 32
  br i1 %cmp31, label %land.lhs.true32, label %if.then37

land.lhs.true32:                                  ; preds = %land.lhs.true26
  %22 = load ptr, ptr %dh, align 8
  %info33 = getelementptr inbounds %struct.DataHeader, ptr %22, i32 0, i32 1
  %formatVersion = getelementptr inbounds %struct.UDataInfo, ptr %info33, i32 0, i32 7
  %arraydecay = getelementptr inbounds [4 x i8], ptr %formatVersion, i64 0, i64 0
  %call35 = invoke noundef signext i8 @_ZN6icu_7515RBBIDataWrapper23isDataVersionAcceptableEPKh(ptr noundef %arraydecay)
          to label %invoke.cont34 unwind label %lpad

invoke.cont34:                                    ; preds = %land.lhs.true32
  %tobool36 = icmp ne i8 %call35, 0
  br i1 %tobool36, label %if.end38, label %if.then37

if.then37:                                        ; preds = %invoke.cont34, %land.lhs.true26, %land.lhs.true20, %land.lhs.true14, %land.lhs.true10, %land.lhs.true6, %land.lhs.true, %if.end
  %23 = load ptr, ptr %status.addr, align 8
  store i32 3, ptr %23, align 4
  br label %return

if.end38:                                         ; preds = %invoke.cont34
  %24 = load ptr, ptr %dh, align 8
  store ptr %24, ptr %dataAsBytes, align 8
  %25 = load ptr, ptr %dataAsBytes, align 8
  %26 = load i32, ptr %headerSize, align 4
  %idx.ext = sext i32 %26 to i64
  %add.ptr = getelementptr inbounds i8, ptr %25, i64 %idx.ext
  store ptr %add.ptr, ptr %rbbidh, align 8
  %27 = load ptr, ptr %rbbidh, align 8
  %28 = load ptr, ptr %status.addr, align 8
  invoke void @_ZN6icu_7515RBBIDataWrapper4initEPKNS_14RBBIDataHeaderER10UErrorCode(ptr noundef nonnull align 8 dereferenceable(137) %this1, ptr noundef %27, ptr noundef nonnull align 4 dereferenceable(4) %28)
          to label %invoke.cont39 unwind label %lpad

invoke.cont39:                                    ; preds = %if.end38
  %29 = load ptr, ptr %udm.addr, align 8
  %fUDataMem = getelementptr inbounds %"class.icu_75::RBBIDataWrapper", ptr %this1, i32 0, i32 10
  store ptr %29, ptr %fUDataMem, align 8
  br label %return

return:                                           ; preds = %invoke.cont39, %if.then37, %if.then
  ret void

eh.resume:                                        ; preds = %lpad
  %exn = load ptr, ptr %exn.slot, align 8
  %sel = load i32, ptr %ehselector.slot, align 4
  %lpad.val = insertvalue { ptr, i32 } poison, ptr %exn, 0
  %lpad.val40 = insertvalue { ptr, i32 } %lpad.val, i32 %sel, 1
  resume { ptr, i32 } %lpad.val40
}