; Function Attrs: mustprogress uwtable
define void @_ZN6icu_7515RBBIDataWrapperC2EP11UDataMemoryR10UErrorCode(ptr noundef nonnull align 8 dereferenceable(137) %this, ptr noundef %udm, ptr noundef nonnull align 4 dereferenceable(4) %status) unnamed_addr #0 align 2 personality ptr @__gxx_personality_v0 {
entry:
  %fRuleString = getelementptr inbounds i8, ptr %this, i64 72
  store ptr getelementptr inbounds ({ [13 x ptr] }, ptr @_ZTVN6icu_7513UnicodeStringE, i64 0, i32 0, i64 2), ptr %fRuleString, align 8
  %fUnion2.i = getelementptr inbounds i8, ptr %this, i64 80
  store i16 2, ptr %fUnion2.i, align 8
  %fTrie.i = getelementptr inbounds i8, ptr %this, i64 48
  store ptr null, ptr %fTrie.i, align 8
  %fUDataMem.i = getelementptr inbounds i8, ptr %this, i64 64
  store ptr null, ptr %fUDataMem.i, align 8
  %fRefCount.i = getelementptr inbounds i8, ptr %this, i64 56
  tail call void @llvm.memset.p0.i64(ptr noundef nonnull align 8 dereferenceable(40) %this, i8 0, i64 40, i1 false)
  store atomic i32 0, ptr %fRefCount.i seq_cst, align 8
  %fDontFreeData.i = getelementptr inbounds i8, ptr %this, i64 136
  store i8 1, ptr %fDontFreeData.i, align 8
  %0 = load i32, ptr %status, align 4
  %cmp.i = icmp slt i32 %0, 1
  br i1 %cmp.i, label %if.end, label %return

lpad:                                             ; preds = %if.end38
  %1 = landingpad { ptr, i32 }
          cleanup
  tail call void @_ZN6icu_7513UnicodeStringD1Ev(ptr noundef nonnull align 8 dereferenceable(64) %fRuleString) #13
  resume { ptr, i32 } %1

if.end:                                           ; preds = %entry
  %pHeader = getelementptr inbounds i8, ptr %udm, i64 8
  %2 = load ptr, ptr %pHeader, align 8
  %3 = load i16, ptr %2, align 2
  %cmp = icmp ugt i16 %3, 19
  br i1 %cmp, label %land.lhs.true, label %if.then37

land.lhs.true:                                    ; preds = %if.end
  %isBigEndian = getelementptr inbounds i8, ptr %2, i64 8
  %4 = load i8, ptr %isBigEndian, align 2
  %cmp5 = icmp eq i8 %4, 0
  br i1 %cmp5, label %land.lhs.true6, label %if.then37

land.lhs.true6:                                   ; preds = %land.lhs.true
  %charsetFamily = getelementptr inbounds i8, ptr %2, i64 9
  %5 = load i8, ptr %charsetFamily, align 1
  %cmp9 = icmp eq i8 %5, 0
  br i1 %cmp9, label %land.lhs.true10, label %if.then37

land.lhs.true10:                                  ; preds = %land.lhs.true6
  %dataFormat = getelementptr inbounds i8, ptr %2, i64 12
  %6 = load i8, ptr %dataFormat, align 2
  %cmp13 = icmp eq i8 %6, 66
  br i1 %cmp13, label %land.lhs.true14, label %if.then37

land.lhs.true14:                                  ; preds = %land.lhs.true10
  %arrayidx17 = getelementptr inbounds i8, ptr %2, i64 13
  %7 = load i8, ptr %arrayidx17, align 1
  %cmp19 = icmp eq i8 %7, 114
  br i1 %cmp19, label %land.lhs.true20, label %if.then37

land.lhs.true20:                                  ; preds = %land.lhs.true14
  %arrayidx23 = getelementptr inbounds i8, ptr %2, i64 14
  %8 = load i8, ptr %arrayidx23, align 2
  %cmp25 = icmp eq i8 %8, 107
  br i1 %cmp25, label %land.lhs.true26, label %if.then37

land.lhs.true26:                                  ; preds = %land.lhs.true20
  %arrayidx29 = getelementptr inbounds i8, ptr %2, i64 15
  %9 = load i8, ptr %arrayidx29, align 1
  %cmp31 = icmp eq i8 %9, 32
  br i1 %cmp31, label %land.lhs.true32, label %if.then37

land.lhs.true32:                                  ; preds = %land.lhs.true26
  %formatVersion = getelementptr inbounds i8, ptr %2, i64 16
  %10 = load i8, ptr %formatVersion, align 1
  %cmp.i13.not = icmp eq i8 %10, 6
  br i1 %cmp.i13.not, label %if.end38, label %if.then37

if.then37:                                        ; preds = %land.lhs.true32, %land.lhs.true26, %land.lhs.true20, %land.lhs.true14, %land.lhs.true10, %land.lhs.true6, %land.lhs.true, %if.end
  store i32 3, ptr %status, align 4
  br label %return

if.end38:                                         ; preds = %land.lhs.true32
  %idx.ext = zext i16 %3 to i64
  %add.ptr = getelementptr inbounds i8, ptr %2, i64 %idx.ext
  invoke void @_ZN6icu_7515RBBIDataWrapper4initEPKNS_14RBBIDataHeaderER10UErrorCode(ptr noundef nonnull align 8 dereferenceable(137) %this, ptr noundef nonnull %add.ptr, ptr noundef nonnull align 4 dereferenceable(4) %status)
          to label %invoke.cont39 unwind label %lpad

invoke.cont39:                                    ; preds = %if.end38
  store ptr %udm, ptr %fUDataMem.i, align 8
  br label %return

return:                                           ; preds = %entry, %invoke.cont39, %if.then37
  ret void
}